target datalayout = "e-m:e-p270:32:32-p271:32:32-p272:64:64-i64:64-i128:128-f80:128-n8:16:32:64-S128"
target triple = "x86_64-pc-linux-gnu"

@_ZTTN2cv9Feature2DE = unnamed_addr constant [2 x ptr] [ptr getelementptr inbounds inrange(-80, 128) ({ [26 x ptr] }, ptr @_ZTVN2cv9Feature2DE, i32 0, i32 0, i32 10), ptr getelementptr inbounds inrange(-80, 128) ({ [26 x ptr] }, ptr @_ZTVN2cv9Feature2DE, i32 0, i32 0, i32 10)], align 8

; Function Attrs: mustprogress nounwind uwtable
define void @_ZN2cv9Feature2DD2Ev(ptr noundef nonnull align 8 dereferenceable(8) %0, ptr noundef %1) unnamed_addr #0 align 2 {
  %3 = alloca ptr, align 8
  %4 = alloca ptr, align 8
  store ptr %0, ptr %3, align 8, !tbaa !3
  store ptr %1, ptr %4, align 8, !tbaa !8
  ret void
}

; Function Attrs: mustprogress nounwind uwtable
define void @_ZN2cv9Feature2DD1Ev(ptr noundef nonnull align 8 dereferenceable(8) %0) unnamed_addr #0 align 2 {
  %2 = alloca ptr, align 8
  store ptr %0, ptr %2, align 8, !tbaa !3
  %3 = load ptr, ptr %2, align 8
  call void @_ZN2cv9Feature2DD2Ev(ptr noundef nonnull align 8 dereferenceable(8) %3, ptr noundef @_ZTTN2cv9Feature2DE) #17
  call void @_ZN2cv9AlgorithmD2Ev(ptr noundef nonnull align 8 dereferenceable(8) %3) #17
  ret void
}

; Function Attrs: mustprogress nounwind uwtable
define void @_ZN2cv9Feature2DD0Ev(ptr noundef nonnull align 8 dereferenceable(8) %0) unnamed_addr #0 align 2 {
  %2 = alloca ptr, align 8
  store ptr %0, ptr %2, align 8, !tbaa !3
  %3 = load ptr, ptr %2, align 8
  call void @_ZN2cv9Feature2DD1Ev(ptr noundef nonnull align 8 dereferenceable(8) %3) #17
  call void @_ZdlPv(ptr noundef %3) #18
  ret void
}

; Function Attrs: nounwind uwtable
define void @_ZTv0_n24_N2cv9Feature2DD0Ev(ptr noundef %0) unnamed_addr #2 align 2 {
  %2 = alloca ptr, align 8
  store ptr %0, ptr %2, align 8, !tbaa !3
  %3 = load ptr, ptr %2, align 8
  %4 = load ptr, ptr %3, align 8, !tbaa !10
  %5 = getelementptr inbounds i8, ptr %4, i64 -24
  %6 = load i64, ptr %5, align 8
  %7 = getelementptr inbounds i8, ptr %3, i64 %6
  tail call void @_ZN2cv9Feature2DD0Ev(ptr noundef nonnull align 8 dereferenceable(8) %7) #17
  ret void
}