; Function Attrs: nounwind uwtable
define void @_ZTv0_n24_N2cv9Feature2DD0Ev(ptr noundef %0) unnamed_addr #3 align 2 {
  %2 = load ptr, ptr %0, align 8, !tbaa !3
  %3 = getelementptr inbounds i8, ptr %2, i64 -24
  %4 = load i64, ptr %3, align 8
  %5 = getelementptr inbounds i8, ptr %0, i64 %4
  tail call void @_ZN2cv9AlgorithmD2Ev(ptr noundef nonnull align 8 dereferenceable(8) %5) #20
  tail call void @_ZdlPv(ptr noundef nonnull align 8 dereferenceable(8) %5) #21
  ret void
}